target datalayout = "e-m:e-p270:32:32-p271:32:32-p272:64:64-i64:64-i128:128-f80:128-n8:16:32:64-S128"
target triple = "x86_64-pc-linux-gnu"

%struct._YR_HASH_TABLE = type { i32, [0 x ptr] }
%struct._YR_HASH_TABLE_ENTRY = type { ptr, ptr, ptr, ptr }

; Function Attrs: nounwind uwtable
define i32 @hash(i32 noundef %0, ptr noundef %1, i32 noundef %2) #0 {
  %4 = alloca i32, align 4
  %5 = alloca ptr, align 8
  %6 = alloca i32, align 4
  %7 = alloca i32, align 4
  %8 = alloca i32, align 4
  store i32 %0, ptr %4, align 4
  store ptr %1, ptr %5, align 8
  store i32 %2, ptr %6, align 4
  %9 = load i32, ptr %4, align 4
  store i32 %9, ptr %8, align 4
  %10 = load i32, ptr %6, align 4
  %11 = sub nsw i32 %10, 1
  store i32 %11, ptr %7, align 4
  br label %12

12:                                               ; preds = %38, %3
  %13 = load i32, ptr %7, align 4
  %14 = icmp sgt i32 %13, 0
  br i1 %14, label %15, label %41

15:                                               ; preds = %12
  %16 = load ptr, ptr %5, align 8
  %17 = load i8, ptr %16, align 1
  %18 = zext i8 %17 to i64
  %19 = getelementptr inbounds [256 x i32], ptr @byte_to_int32, i64 0, i64 %18
  %20 = load i32, ptr %19, align 4
  %21 = load i32, ptr %7, align 4
  %22 = srem i32 %21, 32
  %23 = shl i32 %20, %22
  %24 = load ptr, ptr %5, align 8
  %25 = load i8, ptr %24, align 1
  %26 = zext i8 %25 to i64
  %27 = getelementptr inbounds [256 x i32], ptr @byte_to_int32, i64 0, i64 %26
  %28 = load i32, ptr %27, align 4
  %29 = load i32, ptr %7, align 4
  %30 = srem i32 %29, 32
  %31 = sub nsw i32 32, %30
  %32 = lshr i32 %28, %31
  %33 = or i32 %23, %32
  %34 = load i32, ptr %8, align 4
  %35 = xor i32 %34, %33
  store i32 %35, ptr %8, align 4
  %36 = load ptr, ptr %5, align 8
  %37 = getelementptr inbounds i8, ptr %36, i32 1
  store ptr %37, ptr %5, align 8
  br label %38

38:                                               ; preds = %15
  %39 = load i32, ptr %7, align 4
  %40 = add nsw i32 %39, -1
  store i32 %40, ptr %7, align 4
  br label %12

41:                                               ; preds = %12
  %42 = load ptr, ptr %5, align 8
  %43 = load i8, ptr %42, align 1
  %44 = zext i8 %43 to i64
  %45 = getelementptr inbounds [256 x i32], ptr @byte_to_int32, i64 0, i64 %44
  %46 = load i32, ptr %45, align 4
  %47 = load i32, ptr %8, align 4
  %48 = xor i32 %47, %46
  store i32 %48, ptr %8, align 4
  %49 = load i32, ptr %8, align 4
  ret i32 %49
}

; Function Attrs: nounwind uwtable
define i32 @yr_hash_table_add(ptr noundef %0, ptr noundef %1, ptr noundef %2, ptr noundef %3) #0 {
  %5 = alloca i32, align 4
  %6 = alloca ptr, align 8
  %7 = alloca ptr, align 8
  %8 = alloca ptr, align 8
  %9 = alloca ptr, align 8
  %10 = alloca ptr, align 8
  %11 = alloca i32, align 4
  store ptr %0, ptr %6, align 8
  store ptr %1, ptr %7, align 8
  store ptr %2, ptr %8, align 8
  store ptr %3, ptr %9, align 8
  %12 = call ptr @cli_max_malloc(i64 noundef 32)
  store ptr %12, ptr %10, align 8
  %13 = load ptr, ptr %10, align 8
  %14 = icmp eq ptr %13, null
  br i1 %14, label %15, label %16

15:                                               ; preds = %4
  store i32 1, ptr %5, align 4
  br label %86

16:                                               ; preds = %4
  %17 = load ptr, ptr %7, align 8
  %18 = call ptr @cli_safer_strdup(ptr noundef %17)
  %19 = load ptr, ptr %10, align 8
  %20 = getelementptr inbounds %struct._YR_HASH_TABLE_ENTRY, ptr %19, i32 0, i32 0
  store ptr %18, ptr %20, align 8
  %21 = load ptr, ptr %10, align 8
  %22 = getelementptr inbounds %struct._YR_HASH_TABLE_ENTRY, ptr %21, i32 0, i32 0
  %23 = load ptr, ptr %22, align 8
  %24 = icmp eq ptr %23, null
  br i1 %24, label %25, label %27

25:                                               ; preds = %16
  %26 = load ptr, ptr %10, align 8
  call void @free(ptr noundef %26) #4
  store i32 1, ptr %5, align 4
  br label %86

27:                                               ; preds = %16
  %28 = load ptr, ptr %8, align 8
  %29 = icmp ne ptr %28, null
  br i1 %29, label %30, label %45

30:                                               ; preds = %27
  %31 = load ptr, ptr %8, align 8
  %32 = call ptr @cli_safer_strdup(ptr noundef %31)
  %33 = load ptr, ptr %10, align 8
  %34 = getelementptr inbounds %struct._YR_HASH_TABLE_ENTRY, ptr %33, i32 0, i32 1
  store ptr %32, ptr %34, align 8
  %35 = load ptr, ptr %10, align 8
  %36 = getelementptr inbounds %struct._YR_HASH_TABLE_ENTRY, ptr %35, i32 0, i32 1
  %37 = load ptr, ptr %36, align 8
  %38 = icmp eq ptr %37, null
  br i1 %38, label %39, label %44

39:                                               ; preds = %30
  %40 = load ptr, ptr %10, align 8
  %41 = getelementptr inbounds %struct._YR_HASH_TABLE_ENTRY, ptr %40, i32 0, i32 0
  %42 = load ptr, ptr %41, align 8
  call void @free(ptr noundef %42) #4
  %43 = load ptr, ptr %10, align 8
  call void @free(ptr noundef %43) #4
  store i32 1, ptr %5, align 4
  br label %86

44:                                               ; preds = %30
  br label %48

45:                                               ; preds = %27
  %46 = load ptr, ptr %10, align 8
  %47 = getelementptr inbounds %struct._YR_HASH_TABLE_ENTRY, ptr %46, i32 0, i32 1
  store ptr null, ptr %47, align 8
  br label %48

48:                                               ; preds = %45, %44
  %49 = load ptr, ptr %9, align 8
  %50 = load ptr, ptr %10, align 8
  %51 = getelementptr inbounds %struct._YR_HASH_TABLE_ENTRY, ptr %50, i32 0, i32 2
  store ptr %49, ptr %51, align 8
  %52 = load ptr, ptr %7, align 8
  %53 = load ptr, ptr %7, align 8
  %54 = call i64 @strlen(ptr noundef %53) #5
  %55 = trunc i64 %54 to i32
  %56 = call i32 @hash(i32 noundef 0, ptr noundef %52, i32 noundef %55)
  store i32 %56, ptr %11, align 4
  %57 = load ptr, ptr %8, align 8
  %58 = icmp ne ptr %57, null
  br i1 %58, label %59, label %66

59:                                               ; preds = %48
  %60 = load i32, ptr %11, align 4
  %61 = load ptr, ptr %8, align 8
  %62 = load ptr, ptr %8, align 8
  %63 = call i64 @strlen(ptr noundef %62) #5
  %64 = trunc i64 %63 to i32
  %65 = call i32 @hash(i32 noundef %60, ptr noundef %61, i32 noundef %64)
  store i32 %65, ptr %11, align 4
  br label %66

66:                                               ; preds = %59, %48
  %67 = load i32, ptr %11, align 4
  %68 = load ptr, ptr %6, align 8
  %69 = getelementptr inbounds %struct._YR_HASH_TABLE, ptr %68, i32 0, i32 0
  %70 = load i32, ptr %69, align 8
  %71 = urem i32 %67, %70
  store i32 %71, ptr %11, align 4
  %72 = load ptr, ptr %6, align 8
  %73 = getelementptr inbounds %struct._YR_HASH_TABLE, ptr %72, i32 0, i32 1
  %74 = load i32, ptr %11, align 4
  %75 = zext i32 %74 to i64
  %76 = getelementptr inbounds [0 x ptr], ptr %73, i64 0, i64 %75
  %77 = load ptr, ptr %76, align 8
  %78 = load ptr, ptr %10, align 8
  %79 = getelementptr inbounds %struct._YR_HASH_TABLE_ENTRY, ptr %78, i32 0, i32 3
  store ptr %77, ptr %79, align 8
  %80 = load ptr, ptr %10, align 8
  %81 = load ptr, ptr %6, align 8
  %82 = getelementptr inbounds %struct._YR_HASH_TABLE, ptr %81, i32 0, i32 1
  %83 = load i32, ptr %11, align 4
  %84 = zext i32 %83 to i64
  %85 = getelementptr inbounds [0 x ptr], ptr %82, i64 0, i64 %84
  store ptr %80, ptr %85, align 8
  store i32 0, ptr %5, align 4
  br label %86

86:                                               ; preds = %66, %39, %25, %15
  %87 = load i32, ptr %5, align 4
  ret i32 %87
}