; Function Attrs: nounwind uwtable
define noundef i32 @yr_hash_table_add(ptr nocapture noundef %0, ptr noundef %1, ptr noundef %2, ptr noundef %3) local_unnamed_addr #1 {
  %5 = tail call ptr @cli_max_malloc(i64 noundef 32) #8
  %6 = icmp eq ptr %5, null
  br i1 %6, label %67, label %7

7:                                                ; preds = %4
  %8 = tail call ptr @cli_safer_strdup(ptr noundef %1) #8
  store ptr %8, ptr %5, align 8
  %9 = icmp eq ptr %8, null
  br i1 %9, label %10, label %11

10:                                               ; preds = %7
  tail call void @free(ptr noundef nonnull %5) #8
  br label %67

11:                                               ; preds = %7
  %.not = icmp eq ptr %2, null
  br i1 %.not, label %18, label %12

12:                                               ; preds = %11
  %13 = tail call ptr @cli_safer_strdup(ptr noundef nonnull %2) #8
  %14 = getelementptr inbounds i8, ptr %5, i64 8
  store ptr %13, ptr %14, align 8
  %15 = icmp eq ptr %13, null
  br i1 %15, label %16, label %20

16:                                               ; preds = %12
  %17 = load ptr, ptr %5, align 8
  tail call void @free(ptr noundef %17) #8
  tail call void @free(ptr noundef nonnull %5) #8
  br label %67

18:                                               ; preds = %11
  %19 = getelementptr inbounds i8, ptr %5, i64 8
  store ptr null, ptr %19, align 8
  br label %20

20:                                               ; preds = %12, %18
  %21 = getelementptr inbounds i8, ptr %5, i64 16
  store ptr %3, ptr %21, align 8
  %22 = tail call i64 @strlen(ptr noundef nonnull dereferenceable(1) %1) #9
  %23 = trunc i64 %22 to i32
  %24 = icmp sgt i32 %23, 1
  br i1 %24, label %.lr.ph.i, label %hash.exit

.lr.ph.i:                                         ; preds = %20, %.lr.ph.i
  %.016.i = phi i32 [ %30, %.lr.ph.i ], [ 0, %20 ]
  %.012.in15.i = phi i32 [ %.012.i, %.lr.ph.i ], [ %23, %20 ]
  %.01314.i = phi ptr [ %31, %.lr.ph.i ], [ %1, %20 ]
  %.012.i = add nsw i32 %.012.in15.i, -1
  %25 = load i8, ptr %.01314.i, align 1
  %26 = zext i8 %25 to i64
  %27 = getelementptr inbounds [256 x i32], ptr @byte_to_int32, i64 0, i64 %26
  %28 = load i32, ptr %27, align 4
  %29 = tail call i32 @llvm.fshl.i32(i32 %28, i32 %28, i32 %.012.i)
  %30 = xor i32 %29, %.016.i
  %31 = getelementptr inbounds i8, ptr %.01314.i, i64 1
  %32 = icmp ugt i32 %.012.in15.i, 2
  br i1 %32, label %.lr.ph.i, label %._crit_edge.loopexit.i

._crit_edge.loopexit.i:                           ; preds = %.lr.ph.i
  %33 = and i64 %22, 2147483647
  %34 = getelementptr i8, ptr %1, i64 %33
  %scevgep.i = getelementptr i8, ptr %34, i64 -1
  br label %hash.exit

hash.exit:                                        ; preds = %20, %._crit_edge.loopexit.i
  %.013.lcssa.i = phi ptr [ %1, %20 ], [ %scevgep.i, %._crit_edge.loopexit.i ]
  %.0.lcssa.i = phi i32 [ 0, %20 ], [ %30, %._crit_edge.loopexit.i ]
  %35 = load i8, ptr %.013.lcssa.i, align 1
  %36 = zext i8 %35 to i64
  %37 = getelementptr inbounds [256 x i32], ptr @byte_to_int32, i64 0, i64 %36
  %38 = load i32, ptr %37, align 4
  %39 = xor i32 %38, %.0.lcssa.i
  br i1 %.not, label %59, label %40

40:                                               ; preds = %hash.exit
  %41 = tail call i64 @strlen(ptr noundef nonnull dereferenceable(1) %2) #9
  %42 = trunc i64 %41 to i32
  %43 = icmp sgt i32 %42, 1
  br i1 %43, label %.lr.ph.i34, label %hash.exit41

.lr.ph.i34:                                       ; preds = %40, %.lr.ph.i34
  %.016.i35 = phi i32 [ %49, %.lr.ph.i34 ], [ %39, %40 ]
  %.012.in15.i36 = phi i32 [ %.012.i38, %.lr.ph.i34 ], [ %42, %40 ]
  %.01314.i37 = phi ptr [ %50, %.lr.ph.i34 ], [ %2, %40 ]
  %.012.i38 = add nsw i32 %.012.in15.i36, -1
  %44 = load i8, ptr %.01314.i37, align 1
  %45 = zext i8 %44 to i64
  %46 = getelementptr inbounds [256 x i32], ptr @byte_to_int32, i64 0, i64 %45
  %47 = load i32, ptr %46, align 4
  %48 = tail call i32 @llvm.fshl.i32(i32 %47, i32 %47, i32 %.012.i38)
  %49 = xor i32 %48, %.016.i35
  %50 = getelementptr inbounds i8, ptr %.01314.i37, i64 1
  %51 = icmp ugt i32 %.012.in15.i36, 2
  br i1 %51, label %.lr.ph.i34, label %._crit_edge.loopexit.i39

._crit_edge.loopexit.i39:                         ; preds = %.lr.ph.i34
  %52 = and i64 %41, 2147483647
  %53 = getelementptr i8, ptr %2, i64 %52
  %scevgep.i40 = getelementptr i8, ptr %53, i64 -1
  br label %hash.exit41

hash.exit41:                                      ; preds = %40, %._crit_edge.loopexit.i39
  %.013.lcssa.i31 = phi ptr [ %2, %40 ], [ %scevgep.i40, %._crit_edge.loopexit.i39 ]
  %.0.lcssa.i32 = phi i32 [ %39, %40 ], [ %49, %._crit_edge.loopexit.i39 ]
  %54 = load i8, ptr %.013.lcssa.i31, align 1
  %55 = zext i8 %54 to i64
  %56 = getelementptr inbounds [256 x i32], ptr @byte_to_int32, i64 0, i64 %55
  %57 = load i32, ptr %56, align 4
  %58 = xor i32 %57, %.0.lcssa.i32
  br label %59

59:                                               ; preds = %hash.exit41, %hash.exit
  %.0 = phi i32 [ %58, %hash.exit41 ], [ %39, %hash.exit ]
  %60 = load i32, ptr %0, align 8
  %61 = urem i32 %.0, %60
  %62 = getelementptr inbounds i8, ptr %0, i64 8
  %63 = zext i32 %61 to i64
  %64 = getelementptr inbounds [0 x ptr], ptr %62, i64 0, i64 %63
  %65 = load ptr, ptr %64, align 8
  %66 = getelementptr inbounds i8, ptr %5, i64 24
  store ptr %65, ptr %66, align 8
  store ptr %5, ptr %64, align 8
  br label %67

67:                                               ; preds = %4, %59, %16, %10
  %.028 = phi i32 [ 1, %10 ], [ 1, %16 ], [ 0, %59 ], [ 1, %4 ]
  ret i32 %.028
}